target datalayout = "e-m:e-p270:32:32-p271:32:32-p272:64:64-i64:64-i128:128-f80:128-n8:16:32:64-S128"
target triple = "x86_64-pc-linux-gnu"

@hf_bgp_mcast_vpn_nlri_source_length = internal global i32 0, align 4
@hf_bgp_mcast_vpn_nlri_group_length = internal global i32 0, align 4
@hf_bgp_mcast_vpn_nlri_source_addr_ipv4 = internal global i32 0, align 4
@hf_bgp_mcast_vpn_nlri_source_addr_ipv6 = internal global i32 0, align 4
@hf_bgp_mcast_vpn_nlri_group_addr_ipv4 = internal global i32 0, align 4
@hf_bgp_mcast_vpn_nlri_group_addr_ipv6 = internal global i32 0, align 4

; Function Attrs: null_pointer_is_valid sspstrong uwtable
define internal i32 @decode_mcast_vpn_nlri_addresses(ptr noundef %0, ptr noundef %1, i32 noundef %2) #0 {
  %4 = alloca i32, align 4
  %5 = alloca ptr, align 8
  %6 = alloca ptr, align 8
  %7 = alloca i32, align 4
  %8 = alloca i8, align 1
  %9 = alloca i32, align 4
  store ptr %0, ptr %5, align 8
  store ptr %1, ptr %6, align 8
  store i32 %2, ptr %7, align 4
  call void @llvm.lifetime.start.p0(i64 1, ptr %8) #6
  %10 = load ptr, ptr %5, align 8
  %11 = load i32, ptr @hf_bgp_mcast_vpn_nlri_source_length, align 4
  %12 = load ptr, ptr %6, align 8
  %13 = load i32, ptr %7, align 4
  %14 = call ptr @proto_tree_add_item(ptr noundef %10, i32 noundef %11, ptr noundef %12, i32 noundef %13, i32 noundef 1, i32 noundef 0)
  %15 = load ptr, ptr %6, align 8
  %16 = load i32, ptr %7, align 4
  %17 = call zeroext i8 @tvb_get_uint8(ptr noundef %15, i32 noundef %16)
  store i8 %17, ptr %8, align 1
  %18 = load i8, ptr %8, align 1
  %19 = zext i8 %18 to i32
  %20 = icmp ne i32 %19, 0
  br i1 %20, label %21, label %30

21:                                               ; preds = %3
  %22 = load i8, ptr %8, align 1
  %23 = zext i8 %22 to i32
  %24 = icmp ne i32 %23, 32
  br i1 %24, label %25, label %30

25:                                               ; preds = %21
  %26 = load i8, ptr %8, align 1
  %27 = zext i8 %26 to i32
  %28 = icmp ne i32 %27, 128
  br i1 %28, label %29, label %30

29:                                               ; preds = %25
  store i32 -1, ptr %4, align 4
  store i32 1, ptr %9, align 4
  br label %95

30:                                               ; preds = %25, %21, %3
  %31 = load i32, ptr %7, align 4
  %32 = add i32 %31, 1
  store i32 %32, ptr %7, align 4
  %33 = load i8, ptr %8, align 1
  %34 = zext i8 %33 to i32
  switch i32 %34, label %51 [
    i32 32, label %35
    i32 128, label %43
  ]

35:                                               ; preds = %30
  %36 = load ptr, ptr %5, align 8
  %37 = load i32, ptr @hf_bgp_mcast_vpn_nlri_source_addr_ipv4, align 4
  %38 = load ptr, ptr %6, align 8
  %39 = load i32, ptr %7, align 4
  %40 = call ptr @proto_tree_add_item(ptr noundef %36, i32 noundef %37, ptr noundef %38, i32 noundef %39, i32 noundef 4, i32 noundef 0)
  %41 = load i32, ptr %7, align 4
  %42 = add i32 %41, 4
  store i32 %42, ptr %7, align 4
  br label %51

43:                                               ; preds = %30
  %44 = load ptr, ptr %5, align 8
  %45 = load i32, ptr @hf_bgp_mcast_vpn_nlri_source_addr_ipv6, align 4
  %46 = load ptr, ptr %6, align 8
  %47 = load i32, ptr %7, align 4
  %48 = call ptr @proto_tree_add_item(ptr noundef %44, i32 noundef %45, ptr noundef %46, i32 noundef %47, i32 noundef 16, i32 noundef 0)
  %49 = load i32, ptr %7, align 4
  %50 = add i32 %49, 16
  store i32 %50, ptr %7, align 4
  br label %51

51:                                               ; preds = %30, %43, %35
  %52 = load ptr, ptr %5, align 8
  %53 = load i32, ptr @hf_bgp_mcast_vpn_nlri_group_length, align 4
  %54 = load ptr, ptr %6, align 8
  %55 = load i32, ptr %7, align 4
  %56 = call ptr @proto_tree_add_item(ptr noundef %52, i32 noundef %53, ptr noundef %54, i32 noundef %55, i32 noundef 1, i32 noundef 0)
  %57 = load ptr, ptr %6, align 8
  %58 = load i32, ptr %7, align 4
  %59 = call zeroext i8 @tvb_get_uint8(ptr noundef %57, i32 noundef %58)
  store i8 %59, ptr %8, align 1
  %60 = load i8, ptr %8, align 1
  %61 = zext i8 %60 to i32
  %62 = icmp ne i32 %61, 0
  br i1 %62, label %63, label %72

63:                                               ; preds = %51
  %64 = load i8, ptr %8, align 1
  %65 = zext i8 %64 to i32
  %66 = icmp ne i32 %65, 32
  br i1 %66, label %67, label %72

67:                                               ; preds = %63
  %68 = load i8, ptr %8, align 1
  %69 = zext i8 %68 to i32
  %70 = icmp ne i32 %69, 128
  br i1 %70, label %71, label %72

71:                                               ; preds = %67
  store i32 -1, ptr %4, align 4
  store i32 1, ptr %9, align 4
  br label %95

72:                                               ; preds = %67, %63, %51
  %73 = load i32, ptr %7, align 4
  %74 = add i32 %73, 1
  store i32 %74, ptr %7, align 4
  %75 = load i8, ptr %8, align 1
  %76 = zext i8 %75 to i32
  switch i32 %76, label %93 [
    i32 32, label %77
    i32 128, label %85
  ]

77:                                               ; preds = %72
  %78 = load ptr, ptr %5, align 8
  %79 = load i32, ptr @hf_bgp_mcast_vpn_nlri_group_addr_ipv4, align 4
  %80 = load ptr, ptr %6, align 8
  %81 = load i32, ptr %7, align 4
  %82 = call ptr @proto_tree_add_item(ptr noundef %78, i32 noundef %79, ptr noundef %80, i32 noundef %81, i32 noundef 4, i32 noundef 0)
  %83 = load i32, ptr %7, align 4
  %84 = add i32 %83, 4
  store i32 %84, ptr %7, align 4
  br label %93

85:                                               ; preds = %72
  %86 = load ptr, ptr %5, align 8
  %87 = load i32, ptr @hf_bgp_mcast_vpn_nlri_group_addr_ipv6, align 4
  %88 = load ptr, ptr %6, align 8
  %89 = load i32, ptr %7, align 4
  %90 = call ptr @proto_tree_add_item(ptr noundef %86, i32 noundef %87, ptr noundef %88, i32 noundef %89, i32 noundef 16, i32 noundef 0)
  %91 = load i32, ptr %7, align 4
  %92 = add i32 %91, 16
  store i32 %92, ptr %7, align 4
  br label %93

93:                                               ; preds = %72, %85, %77
  %94 = load i32, ptr %7, align 4
  store i32 %94, ptr %4, align 4
  store i32 1, ptr %9, align 4
  br label %95

95:                                               ; preds = %93, %71, %29
  call void @llvm.lifetime.end.p0(i64 1, ptr %8) #6
  %96 = load i32, ptr %4, align 4
  ret i32 %96
}