; Function Attrs: null_pointer_is_valid sspstrong uwtable
define internal fastcc noundef i32 @decode_mcast_vpn_nlri_addresses(ptr noundef %0, ptr noundef %1, i32 noundef %2) unnamed_addr #0 {
  %4 = load i32, ptr @hf_bgp_mcast_vpn_nlri_source_length, align 4
  %5 = tail call ptr @proto_tree_add_item(ptr noundef %0, i32 noundef %4, ptr noundef %1, i32 noundef %2, i32 noundef 1, i32 noundef 0)
  %6 = tail call zeroext i8 @tvb_get_uint8(ptr noundef %1, i32 noundef %2)
  switch i8 %6, label %23 [
    i8 -128, label %7
    i8 32, label %7
    i8 0, label %7
  ]

7:                                                ; preds = %3, %3, %3
  %8 = add i32 %2, 1
  switch i8 %6, label %13 [
    i8 32, label %.sink.split
    i8 -128, label %9
  ]

9:                                                ; preds = %7
  br label %.sink.split

.sink.split:                                      ; preds = %7, %9
  %hf_bgp_mcast_vpn_nlri_source_addr_ipv6.sink = phi ptr [ @hf_bgp_mcast_vpn_nlri_source_addr_ipv6, %9 ], [ @hf_bgp_mcast_vpn_nlri_source_addr_ipv4, %7 ]
  %.sink50 = phi i32 [ 16, %9 ], [ 4, %7 ]
  %.sink = phi i32 [ 17, %9 ], [ 5, %7 ]
  %10 = load i32, ptr %hf_bgp_mcast_vpn_nlri_source_addr_ipv6.sink, align 4
  %11 = tail call ptr @proto_tree_add_item(ptr noundef %0, i32 noundef %10, ptr noundef %1, i32 noundef %8, i32 noundef %.sink50, i32 noundef 0)
  %12 = add i32 %2, %.sink
  br label %13

13:                                               ; preds = %.sink.split, %7
  %.0 = phi i32 [ %8, %7 ], [ %12, %.sink.split ]
  %14 = load i32, ptr @hf_bgp_mcast_vpn_nlri_group_length, align 4
  %15 = tail call ptr @proto_tree_add_item(ptr noundef %0, i32 noundef %14, ptr noundef %1, i32 noundef %.0, i32 noundef 1, i32 noundef 0)
  %16 = tail call zeroext i8 @tvb_get_uint8(ptr noundef %1, i32 noundef %.0)
  switch i8 %16, label %23 [
    i8 -128, label %17
    i8 32, label %17
    i8 0, label %17
  ]

17:                                               ; preds = %13, %13, %13
  %18 = add i32 %.0, 1
  switch i8 %16, label %23 [
    i8 32, label %.sink.split51
    i8 -128, label %19
  ]

19:                                               ; preds = %17
  br label %.sink.split51

.sink.split51:                                    ; preds = %17, %19
  %hf_bgp_mcast_vpn_nlri_group_addr_ipv4.sink = phi ptr [ @hf_bgp_mcast_vpn_nlri_group_addr_ipv6, %19 ], [ @hf_bgp_mcast_vpn_nlri_group_addr_ipv4, %17 ]
  %.sink54 = phi i32 [ 16, %19 ], [ 4, %17 ]
  %.sink52 = phi i32 [ 17, %19 ], [ 5, %17 ]
  %20 = load i32, ptr %hf_bgp_mcast_vpn_nlri_group_addr_ipv4.sink, align 4
  %21 = tail call ptr @proto_tree_add_item(ptr noundef %0, i32 noundef %20, ptr noundef %1, i32 noundef %18, i32 noundef %.sink54, i32 noundef 0)
  %22 = add i32 %.0, %.sink52
  br label %23

23:                                               ; preds = %.sink.split51, %17, %13, %3
  %.048 = phi i32 [ -1, %3 ], [ -1, %13 ], [ %18, %17 ], [ %22, %.sink.split51 ]
  ret i32 %.048
}